target datalayout = "e-m:e-p270:32:32-p271:32:32-p272:64:64-i64:64-i128:128-f80:128-n8:16:32:64-S128"
target triple = "x86_64-pc-linux-gnu"

@.str = private unnamed_addr constant [39 x i8] c"Usage : %s [ options ] ... [ outdir ]\0A\00", align 1
@.str.1 = private unnamed_addr constant [60 x i8] c"  outdir is an optional output directory instead of cpuid/\0A\00", align 1
@.str.2 = private unnamed_addr constant [10 x i8] c"Options:\0A\00", align 1
@.str.3 = private unnamed_addr constant [76 x i8] c"  -c <n>          Only gather for logical processor with logical index <n>\0A\00", align 1
@.str.4 = private unnamed_addr constant [48 x i8] c"  -q --quiet -s   Do not show verbose messages\0A\00", align 1
@.str.5 = private unnamed_addr constant [43 x i8] c"  --version       Report version and exit\0A\00", align 1
@.str.6 = private unnamed_addr constant [35 x i8] c"  -h --help       Show this usage\0A\00", align 1

; Function Attrs: nounwind uwtable
define hidden void @usage(ptr noundef %0, ptr noundef %1) #0 {
  %3 = alloca ptr, align 8
  %4 = alloca ptr, align 8
  store ptr %0, ptr %3, align 8, !tbaa !4
  store ptr %1, ptr %4, align 8, !tbaa !9
  %5 = load ptr, ptr %4, align 8, !tbaa !9
  %6 = load ptr, ptr %3, align 8, !tbaa !4
  %7 = call i32 (ptr, ptr, ...) @fprintf(ptr noundef %5, ptr noundef @.str, ptr noundef %6) #10
  %8 = load ptr, ptr %4, align 8, !tbaa !9
  %9 = call i32 (ptr, ptr, ...) @fprintf(ptr noundef %8, ptr noundef @.str.1) #10
  %10 = load ptr, ptr %4, align 8, !tbaa !9
  %11 = call i32 (ptr, ptr, ...) @fprintf(ptr noundef %10, ptr noundef @.str.2) #10
  %12 = load ptr, ptr %4, align 8, !tbaa !9
  %13 = call i32 (ptr, ptr, ...) @fprintf(ptr noundef %12, ptr noundef @.str.3) #10
  %14 = load ptr, ptr %4, align 8, !tbaa !9
  %15 = call i32 (ptr, ptr, ...) @fprintf(ptr noundef %14, ptr noundef @.str.4) #10
  %16 = load ptr, ptr %4, align 8, !tbaa !9
  %17 = call i32 (ptr, ptr, ...) @fprintf(ptr noundef %16, ptr noundef @.str.5) #10
  %18 = load ptr, ptr %4, align 8, !tbaa !9
  %19 = call i32 (ptr, ptr, ...) @fprintf(ptr noundef %18, ptr noundef @.str.6) #10
  ret void
}