; Function Attrs: nofree nounwind uwtable
define hidden void @usage(ptr noundef %0, ptr noundef captures(none) %1) local_unnamed_addr #0 {
  %3 = tail call i32 (ptr, ptr, ...) @fprintf(ptr noundef %1, ptr noundef nonnull @.str, ptr noundef %0) #16
  %4 = tail call i64 @fwrite(ptr nonnull @.str.1, i64 59, i64 1, ptr %1)
  %5 = tail call i64 @fwrite(ptr nonnull @.str.2, i64 9, i64 1, ptr %1)
  %6 = tail call i64 @fwrite(ptr nonnull @.str.3, i64 75, i64 1, ptr %1)
  %7 = tail call i64 @fwrite(ptr nonnull @.str.4, i64 47, i64 1, ptr %1)
  %8 = tail call i64 @fwrite(ptr nonnull @.str.5, i64 42, i64 1, ptr %1)
  %9 = tail call i64 @fwrite(ptr nonnull @.str.6, i64 34, i64 1, ptr %1)
  ret void
}